target datalayout = "e-m:e-p270:32:32-p271:32:32-p272:64:64-i64:64-i128:128-f80:128-n8:16:32:64-S128"
target triple = "x86_64-pc-linux-gnu"

%struct.AVChannelLayout = type { i32, i32, %union.anon, ptr }
%union.anon = type { i64 }
%struct.AVChannelCustom = type { i32, [16 x i8], ptr }

; Function Attrs: nounwind uwtable
define i32 @av_channel_layout_custom_init(ptr noundef %0, i32 noundef %1) #0 {
  %3 = alloca i32, align 4
  %4 = alloca ptr, align 8
  %5 = alloca i32, align 4
  %6 = alloca ptr, align 8
  %7 = alloca i32, align 4
  %8 = alloca i32, align 4
  store ptr %0, ptr %4, align 8, !tbaa !23
  store i32 %1, ptr %5, align 4, !tbaa !9
  call void @llvm.lifetime.start.p0(i64 8, ptr %6) #11
  %9 = load i32, ptr %5, align 4, !tbaa !9
  %10 = icmp sle i32 %9, 0
  br i1 %10, label %11, label %12

11:                                               ; preds = %2
  store i32 -22, ptr %3, align 4
  store i32 1, ptr %7, align 4
  br label %43

12:                                               ; preds = %2
  %13 = load i32, ptr %5, align 4, !tbaa !9
  %14 = sext i32 %13 to i64
  %15 = call noalias ptr @av_calloc(i64 noundef %14, i64 noundef 32)
  store ptr %15, ptr %6, align 8, !tbaa !25
  %16 = load ptr, ptr %6, align 8, !tbaa !25
  %17 = icmp ne ptr %16, null
  br i1 %17, label %19, label %18

18:                                               ; preds = %12
  store i32 -12, ptr %3, align 4
  store i32 1, ptr %7, align 4
  br label %43

19:                                               ; preds = %12
  call void @llvm.lifetime.start.p0(i64 4, ptr %8) #11
  store i32 0, ptr %8, align 4, !tbaa !9
  br label %20

20:                                               ; preds = %31, %19
  %21 = load i32, ptr %8, align 4, !tbaa !9
  %22 = load i32, ptr %5, align 4, !tbaa !9
  %23 = icmp slt i32 %21, %22
  br i1 %23, label %25, label %24

24:                                               ; preds = %20
  store i32 2, ptr %7, align 4
  call void @llvm.lifetime.end.p0(i64 4, ptr %8) #11
  br label %34

25:                                               ; preds = %20
  %26 = load ptr, ptr %6, align 8, !tbaa !25
  %27 = load i32, ptr %8, align 4, !tbaa !9
  %28 = sext i32 %27 to i64
  %29 = getelementptr inbounds %struct.AVChannelCustom, ptr %26, i64 %28
  %30 = getelementptr inbounds nuw %struct.AVChannelCustom, ptr %29, i32 0, i32 0
  store i32 768, ptr %30, align 8, !tbaa !27
  br label %31

31:                                               ; preds = %25
  %32 = load i32, ptr %8, align 4, !tbaa !9
  %33 = add nsw i32 %32, 1
  store i32 %33, ptr %8, align 4, !tbaa !9
  br label %20, !llvm.loop !29

34:                                               ; preds = %24
  %35 = load ptr, ptr %4, align 8, !tbaa !23
  %36 = getelementptr inbounds nuw %struct.AVChannelLayout, ptr %35, i32 0, i32 0
  store i32 2, ptr %36, align 8, !tbaa !30
  %37 = load i32, ptr %5, align 4, !tbaa !9
  %38 = load ptr, ptr %4, align 8, !tbaa !23
  %39 = getelementptr inbounds nuw %struct.AVChannelLayout, ptr %38, i32 0, i32 1
  store i32 %37, ptr %39, align 4, !tbaa !32
  %40 = load ptr, ptr %6, align 8, !tbaa !25
  %41 = load ptr, ptr %4, align 8, !tbaa !23
  %42 = getelementptr inbounds nuw %struct.AVChannelLayout, ptr %41, i32 0, i32 2
  store ptr %40, ptr %42, align 8, !tbaa !22
  store i32 0, ptr %3, align 4
  store i32 1, ptr %7, align 4
  br label %43

43:                                               ; preds = %34, %18, %11
  call void @llvm.lifetime.end.p0(i64 8, ptr %6) #11
  %44 = load i32, ptr %3, align 4
  ret i32 %44
}