; Function Attrs: nounwind uwtable
define range(i32 -22, 1) i32 @av_channel_layout_custom_init(ptr noundef writeonly captures(none) %0, i32 noundef %1) local_unnamed_addr #0 {
  %3 = icmp slt i32 %1, 1
  br i1 %3, label %10, label %4

4:                                                ; preds = %2
  %5 = zext nneg i32 %1 to i64
  %6 = tail call noalias ptr @av_calloc(i64 noundef %5, i64 noundef 32) #16
  %.not = icmp eq ptr %6, null
  br i1 %.not, label %10, label %.lr.ph

._crit_edge:                                      ; preds = %.lr.ph
  store i32 2, ptr %0, align 8, !tbaa !18
  %7 = getelementptr inbounds nuw i8, ptr %0, i64 4
  store i32 %1, ptr %7, align 4, !tbaa !20
  %8 = getelementptr inbounds nuw i8, ptr %0, i64 8
  store ptr %6, ptr %8, align 8, !tbaa !17
  br label %10

.lr.ph:                                           ; preds = %4, %.lr.ph
  %indvars.iv = phi i64 [ %indvars.iv.next, %.lr.ph ], [ 0, %4 ]
  %9 = getelementptr inbounds nuw %struct.AVChannelCustom, ptr %6, i64 %indvars.iv
  store i32 768, ptr %9, align 8, !tbaa !21
  %indvars.iv.next = add nuw nsw i64 %indvars.iv, 1
  %exitcond.not = icmp eq i64 %indvars.iv.next, %5
  br i1 %exitcond.not, label %._crit_edge, label %.lr.ph, !llvm.loop !23

10:                                               ; preds = %4, %2, %._crit_edge
  %.013 = phi i32 [ 0, %._crit_edge ], [ -22, %2 ], [ -12, %4 ]
  ret i32 %.013
}